target datalayout = "e-m:e-p270:32:32-p271:32:32-p272:64:64-i64:64-i128:128-f80:128-n8:16:32:64-S128"
target triple = "x86_64-pc-linux-gnu"

%struct.sat_solver2_t = type { i32, i32, i32, i32, i32, double, double, i32, i32, i32, i32, ptr, ptr, i32, i32, i32, i32, i32, i32, i32, i32, i32, i32, i32, %struct.Sat_Mem_t_, ptr, %struct.veci_t, %struct.veci_t, i32, i32, i32, ptr, ptr, ptr, ptr, ptr, ptr, ptr, ptr, %struct.veci_t, %struct.veci_t, %struct.veci_t, %struct.veci_t, %struct.veci_t, %struct.veci_t, %struct.veci_t, %struct.veci_t, %struct.veci_t, %struct.veci_t, ptr, %struct.veci_t, i32, i32, ptr, double, ptr, i32, %struct.stats_t, i64, i64, i64 }
%struct.Sat_Mem_t_ = type { [2 x i32], [2 x i32], [2 x i32], [2 x i32], i32, i32, i32, i32, ptr }
%struct.veci_t = type { i32, i32, ptr }
%struct.stats_t = type { i32, i32, i32, i64, i64, i64, i64, i64, i64, i64 }
%struct.Prf_Man_t_ = type { i32, i32, i32, ptr, ptr, ptr, ptr }
%struct.Vec_Set_t_ = type { i32, i32, i32, i32, i32, i32, ptr }

; Function Attrs: nounwind uwtable
define internal i32 @Vec_SetHandCurrent(ptr noundef %0) #0 {
  %2 = alloca ptr, align 8
  store ptr %0, ptr %2, align 8
  %3 = load ptr, ptr %2, align 8
  %4 = getelementptr inbounds %struct.Vec_Set_t_, ptr %3, i32 0, i32 3
  %5 = load i32, ptr %4, align 4
  %6 = load ptr, ptr %2, align 8
  %7 = getelementptr inbounds %struct.Vec_Set_t_, ptr %6, i32 0, i32 0
  %8 = load i32, ptr %7, align 8
  %9 = shl i32 %5, %8
  %10 = load ptr, ptr %2, align 8
  %11 = getelementptr inbounds %struct.Vec_Set_t_, ptr %10, i32 0, i32 6
  %12 = load ptr, ptr %11, align 8
  %13 = load ptr, ptr %2, align 8
  %14 = getelementptr inbounds %struct.Vec_Set_t_, ptr %13, i32 0, i32 3
  %15 = load i32, ptr %14, align 4
  %16 = sext i32 %15 to i64
  %17 = getelementptr inbounds ptr, ptr %12, i64 %16
  %18 = load ptr, ptr %17, align 8
  %19 = call i32 @Vec_SetLimit(ptr noundef %18)
  %20 = add nsw i32 %9, %19
  ret i32 %20
}

; Function Attrs: nounwind uwtable
define internal i32 @Vec_SetIncLimit(ptr noundef %0, i32 noundef %1) #0 {
  %3 = alloca ptr, align 8
  %4 = alloca i32, align 4
  store ptr %0, ptr %3, align 8
  store i32 %1, ptr %4, align 4
  %5 = load i32, ptr %4, align 4
  %6 = sext i32 %5 to i64
  %7 = load ptr, ptr %3, align 8
  %8 = getelementptr inbounds i64, ptr %7, i64 0
  %9 = load i64, ptr %8, align 8
  %10 = add i64 %9, %6
  store i64 %10, ptr %8, align 8
  %11 = trunc i64 %10 to i32
  ret i32 %11
}

; Function Attrs: nounwind uwtable
define internal void @Vec_SetWriteLimit(ptr noundef %0, i32 noundef %1) #0 {
  %3 = alloca ptr, align 8
  %4 = alloca i32, align 4
  store ptr %0, ptr %3, align 8
  store i32 %1, ptr %4, align 4
  %5 = load i32, ptr %4, align 4
  %6 = sext i32 %5 to i64
  %7 = load ptr, ptr %3, align 8
  %8 = getelementptr inbounds i64, ptr %7, i64 0
  store i64 %6, ptr %8, align 8
  ret void
}

; Function Attrs: nounwind uwtable
define internal i32 @Vec_SetLimit(ptr noundef %0) #0 {
  %2 = alloca ptr, align 8
  store ptr %0, ptr %2, align 8
  %3 = load ptr, ptr %2, align 8
  %4 = getelementptr inbounds i64, ptr %3, i64 0
  %5 = load i64, ptr %4, align 8
  %6 = trunc i64 %5 to i32
  ret i32 %6
}

; Function Attrs: nounwind uwtable
define internal i32 @Vec_SetWordNum(i32 noundef %0) #0 {
  %2 = alloca i32, align 4
  store i32 %0, ptr %2, align 4
  %3 = load i32, ptr %2, align 4
  %4 = add nsw i32 %3, 1
  %5 = ashr i32 %4, 1
  ret i32 %5
}

; Function Attrs: nounwind uwtable
define internal i32 @Vec_SetAppend(ptr noundef %0, ptr noundef %1, i32 noundef %2) #0 {
  %4 = alloca ptr, align 8
  %5 = alloca ptr, align 8
  %6 = alloca i32, align 4
  %7 = alloca i32, align 4
  store ptr %0, ptr %4, align 8
  store ptr %1, ptr %5, align 8
  store i32 %2, ptr %6, align 4
  %8 = load i32, ptr %6, align 4
  %9 = call i32 @Vec_SetWordNum(i32 noundef %8)
  store i32 %9, ptr %7, align 4
  %10 = load ptr, ptr %4, align 8
  %11 = getelementptr inbounds %struct.Vec_Set_t_, ptr %10, i32 0, i32 2
  %12 = load i32, ptr %11, align 8
  %13 = add nsw i32 %12, 1
  store i32 %13, ptr %11, align 8
  %14 = load ptr, ptr %4, align 8
  %15 = getelementptr inbounds %struct.Vec_Set_t_, ptr %14, i32 0, i32 6
  %16 = load ptr, ptr %15, align 8
  %17 = load ptr, ptr %4, align 8
  %18 = getelementptr inbounds %struct.Vec_Set_t_, ptr %17, i32 0, i32 3
  %19 = load i32, ptr %18, align 4
  %20 = sext i32 %19 to i64
  %21 = getelementptr inbounds ptr, ptr %16, i64 %20
  %22 = load ptr, ptr %21, align 8
  %23 = call i32 @Vec_SetLimit(ptr noundef %22)
  %24 = load i32, ptr %7, align 4
  %25 = add nsw i32 %23, %24
  %26 = load ptr, ptr %4, align 8
  %27 = getelementptr inbounds %struct.Vec_Set_t_, ptr %26, i32 0, i32 0
  %28 = load i32, ptr %27, align 8
  %29 = shl i32 1, %28
  %30 = icmp sge i32 %25, %29
  br i1 %30, label %31, label %134

31:                                               ; preds = %3
  %32 = load ptr, ptr %4, align 8
  %33 = getelementptr inbounds %struct.Vec_Set_t_, ptr %32, i32 0, i32 3
  %34 = load i32, ptr %33, align 4
  %35 = add nsw i32 %34, 1
  store i32 %35, ptr %33, align 4
  %36 = load ptr, ptr %4, align 8
  %37 = getelementptr inbounds %struct.Vec_Set_t_, ptr %36, i32 0, i32 5
  %38 = load i32, ptr %37, align 4
  %39 = icmp eq i32 %35, %38
  br i1 %39, label %40, label %85

40:                                               ; preds = %31
  %41 = load ptr, ptr %4, align 8
  %42 = getelementptr inbounds %struct.Vec_Set_t_, ptr %41, i32 0, i32 6
  %43 = load ptr, ptr %42, align 8
  %44 = icmp ne ptr %43, null
  br i1 %44, label %45, label %56

45:                                               ; preds = %40
  %46 = load ptr, ptr %4, align 8
  %47 = getelementptr inbounds %struct.Vec_Set_t_, ptr %46, i32 0, i32 6
  %48 = load ptr, ptr %47, align 8
  %49 = load ptr, ptr %4, align 8
  %50 = getelementptr inbounds %struct.Vec_Set_t_, ptr %49, i32 0, i32 5
  %51 = load i32, ptr %50, align 4
  %52 = mul nsw i32 %51, 2
  %53 = sext i32 %52 to i64
  %54 = mul i64 8, %53
  %55 = call ptr @realloc(ptr noundef %48, i64 noundef %54) #11
  br label %64

56:                                               ; preds = %40
  %57 = load ptr, ptr %4, align 8
  %58 = getelementptr inbounds %struct.Vec_Set_t_, ptr %57, i32 0, i32 5
  %59 = load i32, ptr %58, align 4
  %60 = mul nsw i32 %59, 2
  %61 = sext i32 %60 to i64
  %62 = mul i64 8, %61
  %63 = call noalias ptr @malloc(i64 noundef %62) #12
  br label %64

64:                                               ; preds = %56, %45
  %65 = phi ptr [ %55, %45 ], [ %63, %56 ]
  %66 = load ptr, ptr %4, align 8
  %67 = getelementptr inbounds %struct.Vec_Set_t_, ptr %66, i32 0, i32 6
  store ptr %65, ptr %67, align 8
  %68 = load ptr, ptr %4, align 8
  %69 = getelementptr inbounds %struct.Vec_Set_t_, ptr %68, i32 0, i32 6
  %70 = load ptr, ptr %69, align 8
  %71 = load ptr, ptr %4, align 8
  %72 = getelementptr inbounds %struct.Vec_Set_t_, ptr %71, i32 0, i32 5
  %73 = load i32, ptr %72, align 4
  %74 = sext i32 %73 to i64
  %75 = getelementptr inbounds ptr, ptr %70, i64 %74
  %76 = load ptr, ptr %4, align 8
  %77 = getelementptr inbounds %struct.Vec_Set_t_, ptr %76, i32 0, i32 5
  %78 = load i32, ptr %77, align 4
  %79 = sext i32 %78 to i64
  %80 = mul i64 8, %79
  call void @llvm.memset.p0.i64(ptr align 8 %75, i8 0, i64 %80, i1 false)
  %81 = load ptr, ptr %4, align 8
  %82 = getelementptr inbounds %struct.Vec_Set_t_, ptr %81, i32 0, i32 5
  %83 = load i32, ptr %82, align 4
  %84 = mul nsw i32 %83, 2
  store i32 %84, ptr %82, align 4
  br label %85

85:                                               ; preds = %64, %31
  %86 = load ptr, ptr %4, align 8
  %87 = getelementptr inbounds %struct.Vec_Set_t_, ptr %86, i32 0, i32 6
  %88 = load ptr, ptr %87, align 8
  %89 = load ptr, ptr %4, align 8
  %90 = getelementptr inbounds %struct.Vec_Set_t_, ptr %89, i32 0, i32 3
  %91 = load i32, ptr %90, align 4
  %92 = sext i32 %91 to i64
  %93 = getelementptr inbounds ptr, ptr %88, i64 %92
  %94 = load ptr, ptr %93, align 8
  %95 = icmp eq ptr %94, null
  br i1 %95, label %96, label %114

96:                                               ; preds = %85
  %97 = load ptr, ptr %4, align 8
  %98 = getelementptr inbounds %struct.Vec_Set_t_, ptr %97, i32 0, i32 0
  %99 = load i32, ptr %98, align 8
  %100 = zext i32 %99 to i64
  %101 = shl i64 1, %100
  %102 = trunc i64 %101 to i32
  %103 = sext i32 %102 to i64
  %104 = mul i64 8, %103
  %105 = call noalias ptr @malloc(i64 noundef %104) #12
  %106 = load ptr, ptr %4, align 8
  %107 = getelementptr inbounds %struct.Vec_Set_t_, ptr %106, i32 0, i32 6
  %108 = load ptr, ptr %107, align 8
  %109 = load ptr, ptr %4, align 8
  %110 = getelementptr inbounds %struct.Vec_Set_t_, ptr %109, i32 0, i32 3
  %111 = load i32, ptr %110, align 4
  %112 = sext i32 %111 to i64
  %113 = getelementptr inbounds ptr, ptr %108, i64 %112
  store ptr %105, ptr %113, align 8
  br label %114

114:                                              ; preds = %96, %85
  %115 = load ptr, ptr %4, align 8
  %116 = getelementptr inbounds %struct.Vec_Set_t_, ptr %115, i32 0, i32 6
  %117 = load ptr, ptr %116, align 8
  %118 = load ptr, ptr %4, align 8
  %119 = getelementptr inbounds %struct.Vec_Set_t_, ptr %118, i32 0, i32 3
  %120 = load i32, ptr %119, align 4
  %121 = sext i32 %120 to i64
  %122 = getelementptr inbounds ptr, ptr %117, i64 %121
  %123 = load ptr, ptr %122, align 8
  call void @Vec_SetWriteLimit(ptr noundef %123, i32 noundef 2)
  %124 = load ptr, ptr %4, align 8
  %125 = getelementptr inbounds %struct.Vec_Set_t_, ptr %124, i32 0, i32 6
  %126 = load ptr, ptr %125, align 8
  %127 = load ptr, ptr %4, align 8
  %128 = getelementptr inbounds %struct.Vec_Set_t_, ptr %127, i32 0, i32 3
  %129 = load i32, ptr %128, align 4
  %130 = sext i32 %129 to i64
  %131 = getelementptr inbounds ptr, ptr %126, i64 %130
  %132 = load ptr, ptr %131, align 8
  %133 = getelementptr inbounds i64, ptr %132, i64 1
  store i64 -1, ptr %133, align 8
  br label %134

134:                                              ; preds = %114, %3
  %135 = load ptr, ptr %5, align 8
  %136 = icmp ne ptr %135, null
  br i1 %136, label %137, label %163

137:                                              ; preds = %134
  %138 = load ptr, ptr %4, align 8
  %139 = getelementptr inbounds %struct.Vec_Set_t_, ptr %138, i32 0, i32 6
  %140 = load ptr, ptr %139, align 8
  %141 = load ptr, ptr %4, align 8
  %142 = getelementptr inbounds %struct.Vec_Set_t_, ptr %141, i32 0, i32 3
  %143 = load i32, ptr %142, align 4
  %144 = sext i32 %143 to i64
  %145 = getelementptr inbounds ptr, ptr %140, i64 %144
  %146 = load ptr, ptr %145, align 8
  %147 = load ptr, ptr %4, align 8
  %148 = getelementptr inbounds %struct.Vec_Set_t_, ptr %147, i32 0, i32 6
  %149 = load ptr, ptr %148, align 8
  %150 = load ptr, ptr %4, align 8
  %151 = getelementptr inbounds %struct.Vec_Set_t_, ptr %150, i32 0, i32 3
  %152 = load i32, ptr %151, align 4
  %153 = sext i32 %152 to i64
  %154 = getelementptr inbounds ptr, ptr %149, i64 %153
  %155 = load ptr, ptr %154, align 8
  %156 = call i32 @Vec_SetLimit(ptr noundef %155)
  %157 = sext i32 %156 to i64
  %158 = getelementptr inbounds i64, ptr %146, i64 %157
  %159 = load ptr, ptr %5, align 8
  %160 = load i32, ptr %6, align 4
  %161 = sext i32 %160 to i64
  %162 = mul i64 4, %161
  call void @llvm.memcpy.p0.p0.i64(ptr align 8 %158, ptr align 4 %159, i64 %162, i1 false)
  br label %163

163:                                              ; preds = %137, %134
  %164 = load ptr, ptr %4, align 8
  %165 = getelementptr inbounds %struct.Vec_Set_t_, ptr %164, i32 0, i32 6
  %166 = load ptr, ptr %165, align 8
  %167 = load ptr, ptr %4, align 8
  %168 = getelementptr inbounds %struct.Vec_Set_t_, ptr %167, i32 0, i32 3
  %169 = load i32, ptr %168, align 4
  %170 = sext i32 %169 to i64
  %171 = getelementptr inbounds ptr, ptr %166, i64 %170
  %172 = load ptr, ptr %171, align 8
  %173 = load i32, ptr %7, align 4
  %174 = call i32 @Vec_SetIncLimit(ptr noundef %172, i32 noundef %173)
  %175 = load ptr, ptr %4, align 8
  %176 = call i32 @Vec_SetHandCurrent(ptr noundef %175)
  %177 = load i32, ptr %7, align 4
  %178 = sub nsw i32 %176, %177
  ret i32 %178
}

; Function Attrs: nounwind uwtable
define internal i32 @veci_size(ptr noundef %0) #0 {
  %2 = alloca ptr, align 8
  store ptr %0, ptr %2, align 8
  %3 = load ptr, ptr %2, align 8
  %4 = getelementptr inbounds %struct.veci_t, ptr %3, i32 0, i32 1
  %5 = load i32, ptr %4, align 4
  ret i32 %5
}

; Function Attrs: nounwind uwtable
define internal ptr @veci_begin(ptr noundef %0) #0 {
  %2 = alloca ptr, align 8
  store ptr %0, ptr %2, align 8
  %3 = load ptr, ptr %2, align 8
  %4 = getelementptr inbounds %struct.veci_t, ptr %3, i32 0, i32 2
  %5 = load ptr, ptr %4, align 8
  ret ptr %5
}

; Function Attrs: nounwind uwtable
define internal i32 @Prf_ManChainStop(ptr noundef %0) #0 {
  %2 = alloca ptr, align 8
  store ptr %0, ptr %2, align 8
  %3 = load ptr, ptr %2, align 8
  %4 = getelementptr inbounds %struct.Prf_Man_t_, ptr %3, i32 0, i32 3
  store ptr null, ptr %4, align 8
  ret i32 0
}

; Function Attrs: nounwind uwtable
define internal i32 @proof_chain_stop(ptr noundef %0) #0 {
  %2 = alloca i32, align 4
  %3 = alloca ptr, align 8
  %4 = alloca i32, align 4
  %5 = alloca i32, align 4
  store ptr %0, ptr %3, align 8
  %6 = load ptr, ptr %3, align 8
  %7 = getelementptr inbounds %struct.sat_solver2_t, ptr %6, i32 0, i32 22
  %8 = load i32, ptr %7, align 4
  %9 = icmp ne i32 %8, 0
  br i1 %9, label %11, label %10

10:                                               ; preds = %1
  store i32 0, ptr %2, align 4
  br label %59

11:                                               ; preds = %1
  %12 = load ptr, ptr %3, align 8
  %13 = getelementptr inbounds %struct.sat_solver2_t, ptr %12, i32 0, i32 55
  %14 = load ptr, ptr %13, align 8
  %15 = icmp ne ptr %14, null
  br i1 %15, label %16, label %23

16:                                               ; preds = %11
  %17 = load ptr, ptr %3, align 8
  %18 = getelementptr inbounds %struct.sat_solver2_t, ptr %17, i32 0, i32 56
  %19 = load i32, ptr %18, align 8
  store i32 %19, ptr %4, align 4
  %20 = load ptr, ptr %3, align 8
  %21 = getelementptr inbounds %struct.sat_solver2_t, ptr %20, i32 0, i32 56
  store i32 -1, ptr %21, align 8
  %22 = load i32, ptr %4, align 4
  store i32 %22, ptr %2, align 4
  br label %59

23:                                               ; preds = %11
  %24 = load ptr, ptr %3, align 8
  %25 = getelementptr inbounds %struct.sat_solver2_t, ptr %24, i32 0, i32 53
  %26 = load ptr, ptr %25, align 8
  %27 = icmp ne ptr %26, null
  br i1 %27, label %28, label %33

28:                                               ; preds = %23
  %29 = load ptr, ptr %3, align 8
  %30 = getelementptr inbounds %struct.sat_solver2_t, ptr %29, i32 0, i32 53
  %31 = load ptr, ptr %30, align 8
  %32 = call i32 @Prf_ManChainStop(ptr noundef %31)
  br label %33

33:                                               ; preds = %28, %23
  %34 = load ptr, ptr %3, align 8
  %35 = getelementptr inbounds %struct.sat_solver2_t, ptr %34, i32 0, i32 49
  %36 = load ptr, ptr %35, align 8
  %37 = icmp ne ptr %36, null
  br i1 %37, label %38, label %58

38:                                               ; preds = %33
  %39 = load ptr, ptr %3, align 8
  %40 = getelementptr inbounds %struct.sat_solver2_t, ptr %39, i32 0, i32 49
  %41 = load ptr, ptr %40, align 8
  %42 = load ptr, ptr %3, align 8
  %43 = getelementptr inbounds %struct.sat_solver2_t, ptr %42, i32 0, i32 50
  %44 = call ptr @veci_begin(ptr noundef %43)
  %45 = load ptr, ptr %3, align 8
  %46 = getelementptr inbounds %struct.sat_solver2_t, ptr %45, i32 0, i32 50
  %47 = call i32 @veci_size(ptr noundef %46)
  %48 = call i32 @Vec_SetAppend(ptr noundef %41, ptr noundef %44, i32 noundef %47)
  store i32 %48, ptr %5, align 4
  %49 = load ptr, ptr %3, align 8
  %50 = getelementptr inbounds %struct.sat_solver2_t, ptr %49, i32 0, i32 49
  %51 = load ptr, ptr %50, align 8
  %52 = load i32, ptr %5, align 4
  %53 = load ptr, ptr %3, align 8
  %54 = getelementptr inbounds %struct.sat_solver2_t, ptr %53, i32 0, i32 50
  %55 = call i32 @veci_size(ptr noundef %54)
  %56 = sub nsw i32 %55, 2
  call void @Proof_ClauseSetEnts(ptr noundef %51, i32 noundef %52, i32 noundef %56)
  %57 = load i32, ptr %5, align 4
  store i32 %57, ptr %2, align 4
  br label %59

58:                                               ; preds = %33
  store i32 0, ptr %2, align 4
  br label %59

59:                                               ; preds = %58, %38, %16, %10
  %60 = load i32, ptr %2, align 4
  ret i32 %60
}