; Function Attrs: nounwind uwtable
define internal fastcc i32 @proof_chain_stop(ptr noundef captures(none) %0) unnamed_addr #2 {
  %2 = getelementptr inbounds nuw i8, ptr %0, i64 108
  %3 = load i32, ptr %2, align 4
  %.not = icmp eq i32 %3, 0
  br i1 %.not, label %101, label %4

4:                                                ; preds = %1
  %5 = getelementptr inbounds nuw i8, ptr %0, i64 504
  %6 = load ptr, ptr %5, align 8
  %.not17 = icmp eq ptr %6, null
  br i1 %.not17, label %10, label %7

7:                                                ; preds = %4
  %8 = getelementptr inbounds nuw i8, ptr %0, i64 512
  %9 = load i32, ptr %8, align 8
  store i32 -1, ptr %8, align 8
  br label %101

10:                                               ; preds = %4
  %11 = getelementptr inbounds nuw i8, ptr %0, i64 488
  %12 = load ptr, ptr %11, align 8
  %.not18 = icmp eq ptr %12, null
  br i1 %.not18, label %15, label %13

13:                                               ; preds = %10
  %14 = getelementptr inbounds nuw i8, ptr %12, i64 16
  store ptr null, ptr %14, align 8
  br label %15

15:                                               ; preds = %13, %10
  %16 = getelementptr inbounds nuw i8, ptr %0, i64 456
  %17 = load ptr, ptr %16, align 8
  %.not19 = icmp eq ptr %17, null
  br i1 %.not19, label %101, label %18

18:                                               ; preds = %15
  %19 = getelementptr i8, ptr %0, i64 472
  %.val = load ptr, ptr %19, align 8
  %20 = getelementptr i8, ptr %0, i64 468
  %.val21 = load i32, ptr %20, align 4
  %21 = add nsw i32 %.val21, 1
  %22 = ashr i32 %21, 1
  %23 = getelementptr inbounds nuw i8, ptr %17, i64 8
  %24 = load i32, ptr %23, align 8
  %25 = add nsw i32 %24, 1
  store i32 %25, ptr %23, align 8
  %26 = getelementptr inbounds nuw i8, ptr %17, i64 24
  %27 = load ptr, ptr %26, align 8
  %28 = getelementptr inbounds nuw i8, ptr %17, i64 12
  %29 = load i32, ptr %28, align 4
  %30 = sext i32 %29 to i64
  %31 = getelementptr inbounds ptr, ptr %27, i64 %30
  %32 = load ptr, ptr %31, align 8
  %.val.i = load i64, ptr %32, align 8
  %33 = trunc i64 %.val.i to i32
  %34 = add nsw i32 %22, %33
  %35 = load i32, ptr %17, align 8
  %36 = shl nuw i32 1, %35
  %.not.i = icmp slt i32 %34, %36
  br i1 %.not.i, label %72, label %37

37:                                               ; preds = %18
  %38 = add nsw i32 %29, 1
  store i32 %38, ptr %28, align 4
  %39 = getelementptr inbounds nuw i8, ptr %17, i64 20
  %40 = load i32, ptr %39, align 4
  %41 = icmp eq i32 %38, %40
  br i1 %41, label %42, label %52

42:                                               ; preds = %37
  %43 = shl nsw i32 %38, 1
  %44 = sext i32 %43 to i64
  %45 = shl nsw i64 %44, 3
  %46 = tail call ptr @realloc(ptr noundef nonnull %27, i64 noundef %45) #27
  store ptr %46, ptr %26, align 8
  %47 = load i32, ptr %39, align 4
  %48 = sext i32 %47 to i64
  %49 = getelementptr inbounds ptr, ptr %46, i64 %48
  %50 = shl nsw i64 %48, 3
  tail call void @llvm.memset.p0.i64(ptr align 8 %49, i8 0, i64 %50, i1 false)
  %51 = shl nsw i32 %47, 1
  store i32 %51, ptr %39, align 4
  %.pre.i = load i32, ptr %28, align 4
  br label %52

52:                                               ; preds = %42, %37
  %53 = phi i32 [ %.pre.i, %42 ], [ %38, %37 ]
  %54 = phi ptr [ %46, %42 ], [ %27, %37 ]
  %55 = sext i32 %53 to i64
  %56 = getelementptr inbounds ptr, ptr %54, i64 %55
  %57 = load ptr, ptr %56, align 8
  %58 = icmp eq ptr %57, null
  br i1 %58, label %59, label %64

59:                                               ; preds = %52
  %60 = load i32, ptr %17, align 8
  %61 = zext nneg i32 %60 to i64
  %sext.i = shl i64 4294967296, %61
  %62 = ashr exact i64 %sext.i, 29
  %63 = tail call noalias ptr @malloc(i64 noundef %62) #28
  store ptr %63, ptr %56, align 8
  %.pre43.i = load ptr, ptr %26, align 8
  %.pre44.i = load i32, ptr %28, align 4
  %.phi.trans.insert.i = sext i32 %.pre44.i to i64
  %.phi.trans.insert45.i = getelementptr inbounds ptr, ptr %.pre43.i, i64 %.phi.trans.insert.i
  %.pre46.i = load ptr, ptr %.phi.trans.insert45.i, align 8
  br label %64

64:                                               ; preds = %59, %52
  %65 = phi ptr [ %.pre46.i, %59 ], [ %57, %52 ]
  store i64 2, ptr %65, align 8
  %66 = load ptr, ptr %26, align 8
  %67 = load i32, ptr %28, align 4
  %68 = sext i32 %67 to i64
  %69 = getelementptr inbounds ptr, ptr %66, i64 %68
  %70 = load ptr, ptr %69, align 8
  %71 = getelementptr inbounds nuw i8, ptr %70, i64 8
  store i64 -1, ptr %71, align 8
  %.pre48.pre.i = load ptr, ptr %26, align 8
  %.pre50.pre.i = load i32, ptr %28, align 4
  br label %72

72:                                               ; preds = %64, %18
  %.pre50.i = phi i32 [ %.pre50.pre.i, %64 ], [ %29, %18 ]
  %.pre48.i = phi ptr [ %.pre48.pre.i, %64 ], [ %27, %18 ]
  %.not40.i = icmp eq ptr %.val, null
  br i1 %.not40.i, label %Vec_SetAppend.exit, label %73

73:                                               ; preds = %72
  %74 = sext i32 %.pre50.i to i64
  %75 = getelementptr inbounds ptr, ptr %.pre48.i, i64 %74
  %76 = load ptr, ptr %75, align 8
  %.val41.i = load i64, ptr %76, align 8
  %sext42.i = shl i64 %.val41.i, 32
  %77 = ashr exact i64 %sext42.i, 29
  %78 = getelementptr inbounds i8, ptr %76, i64 %77
  %79 = sext i32 %.val21 to i64
  %80 = shl nsw i64 %79, 2
  tail call void @llvm.memcpy.p0.p0.i64(ptr nonnull align 8 %78, ptr nonnull readonly align 4 %.val, i64 %80, i1 false)
  %.pre47.i = load ptr, ptr %26, align 8
  %.pre49.i = load i32, ptr %28, align 4
  br label %Vec_SetAppend.exit

Vec_SetAppend.exit:                               ; preds = %72, %73
  %81 = phi i32 [ %.pre49.i, %73 ], [ %.pre50.i, %72 ]
  %82 = phi ptr [ %.pre47.i, %73 ], [ %.pre48.i, %72 ]
  %83 = sext i32 %81 to i64
  %84 = getelementptr inbounds ptr, ptr %82, i64 %83
  %85 = load ptr, ptr %84, align 8
  %86 = sext i32 %22 to i64
  %87 = load i64, ptr %85, align 8
  %88 = add i64 %87, %86
  store i64 %88, ptr %85, align 8
  %89 = load i32, ptr %28, align 4
  %90 = load i32, ptr %17, align 8
  %91 = shl i32 %89, %90
  %92 = load ptr, ptr %26, align 8
  %93 = sext i32 %89 to i64
  %94 = getelementptr inbounds ptr, ptr %92, i64 %93
  %95 = load ptr, ptr %94, align 8
  %.val.i.i = load i64, ptr %95, align 8
  %96 = trunc i64 %.val.i.i to i32
  %97 = sub i32 %91, %22
  %98 = add i32 %97, %96
  %99 = load ptr, ptr %16, align 8
  %.val20 = load i32, ptr %20, align 4
  %100 = add nsw i32 %.val20, -2
  tail call void @Proof_ClauseSetEnts(ptr noundef %99, i32 noundef %98, i32 noundef %100) #29
  br label %101

101:                                              ; preds = %15, %1, %Vec_SetAppend.exit, %7
  %.0 = phi i32 [ %9, %7 ], [ %98, %Vec_SetAppend.exit ], [ 0, %1 ], [ 0, %15 ]
  ret i32 %.0
}